target datalayout = "e-m:e-p270:32:32-p271:32:32-p272:64:64-i64:64-i128:128-f80:128-n8:16:32:64-S128"
target triple = "x86_64-pc-linux-gnu"

%struct._zend_libxml_globals = type { %struct._zval_struct, %struct.smart_str, ptr, %struct._zend_fcall_info_cache, i8 }
%struct._zval_struct = type { %union._zend_value, %union.anon, %union.anon.2 }
%union._zend_value = type { i64 }
%union.anon = type { i32 }
%union.anon.2 = type { i32 }
%struct.smart_str = type { ptr, i64 }
%struct._zend_fcall_info_cache = type { ptr, ptr, ptr, ptr, ptr }
%struct._zend_refcounted_h = type { i32, %union.anon.3 }
%union.anon.3 = type { i32 }
%struct._zend_string = type { %struct._zend_refcounted_h, i64, i64, [1 x i8] }
%struct._xmlParserInputBuffer = type { ptr, ptr, ptr, ptr, ptr, ptr, i32, i32, i64 }

@libxml_globals = internal global %struct._zend_libxml_globals zeroinitializer, align 8
@.str.72 = private unnamed_addr constant [3 x i8] c"rb\00", align 1

; Function Attrs: nounwind uwtable
define internal i32 @php_libxml_streams_IO_close(ptr noundef %0) #0 {
  %2 = alloca ptr, align 8
  store ptr %0, ptr %2, align 8
  %3 = load ptr, ptr %2, align 8
  %4 = call i32 @_php_stream_free(ptr noundef %3, i32 noundef 3)
  ret i32 %4
}

; Function Attrs: nounwind uwtable
define internal ptr @php_libxml_streams_IO_open_read_wrapper(ptr noundef %0) #0 {
  %2 = alloca ptr, align 8
  store ptr %0, ptr %2, align 8
  %3 = load ptr, ptr %2, align 8
  %4 = call ptr @php_libxml_streams_IO_open_wrapper(ptr noundef %3, ptr noundef @.str.72, i32 noundef 1)
  ret ptr %4
}

; Function Attrs: nounwind uwtable
define internal ptr @php_libxml_input_buffer_create_filename(ptr noundef %0, i32 noundef %1) #0 {
  %3 = alloca ptr, align 8
  %4 = alloca i32, align 4
  %5 = alloca ptr, align 8
  %6 = alloca i8, align 1
  %7 = alloca ptr, align 8
  %8 = alloca ptr, align 8
  %9 = alloca i32, align 4
  %10 = alloca ptr, align 8
  %11 = alloca ptr, align 8
  %12 = alloca ptr, align 8
  %13 = alloca ptr, align 8
  store ptr %0, ptr %8, align 8
  store i32 %1, ptr %9, align 4
  store ptr null, ptr %11, align 8
  %14 = load i8, ptr getelementptr inbounds (%struct._zend_libxml_globals, ptr @libxml_globals, i32 0, i32 4), align 8
  %15 = trunc i8 %14 to i1
  br i1 %15, label %16, label %17

16:                                               ; preds = %2
  store ptr null, ptr %7, align 8
  br label %91

17:                                               ; preds = %2
  %18 = load ptr, ptr %8, align 8
  %19 = icmp eq ptr %18, null
  br i1 %19, label %20, label %21

20:                                               ; preds = %17
  store ptr null, ptr %7, align 8
  br label %91

21:                                               ; preds = %17
  %22 = load ptr, ptr %8, align 8
  %23 = call ptr @php_libxml_streams_IO_open_read_wrapper(ptr noundef %22)
  store ptr %23, ptr %11, align 8
  %24 = load ptr, ptr %11, align 8
  %25 = icmp eq ptr %24, null
  br i1 %25, label %26, label %27

26:                                               ; preds = %21
  store ptr null, ptr %7, align 8
  br label %91

27:                                               ; preds = %21
  %28 = load i32, ptr %9, align 4
  %29 = icmp eq i32 %28, 0
  br i1 %29, label %30, label %73

30:                                               ; preds = %27
  %31 = load ptr, ptr %11, align 8
  store ptr %31, ptr %12, align 8
  %32 = load ptr, ptr %12, align 8
  %33 = call ptr @php_libxml_sniff_charset_from_stream(ptr noundef %32)
  store ptr %33, ptr %13, align 8
  %34 = load ptr, ptr %13, align 8
  %35 = icmp ne ptr %34, null
  br i1 %35, label %36, label %72

36:                                               ; preds = %30
  %37 = load ptr, ptr %13, align 8
  %38 = getelementptr inbounds %struct._zend_string, ptr %37, i32 0, i32 3
  %39 = getelementptr inbounds [1 x i8], ptr %38, i64 0, i64 0
  %40 = call i32 @xmlParseCharEncoding(ptr noundef %39)
  store i32 %40, ptr %9, align 4
  %41 = load i32, ptr %9, align 4
  %42 = icmp sle i32 %41, 0
  br i1 %42, label %43, label %44

43:                                               ; preds = %36
  store i32 0, ptr %9, align 4
  br label %44

44:                                               ; preds = %43, %36
  %45 = load ptr, ptr %13, align 8
  store ptr %45, ptr %5, align 8
  store i8 0, ptr %6, align 1
  %46 = load ptr, ptr %5, align 8
  %47 = getelementptr inbounds %struct._zend_refcounted_h, ptr %46, i32 0, i32 1
  %48 = load i32, ptr %47, align 4
  store i32 %48, ptr %4, align 4
  %49 = load i32, ptr %4, align 4
  %50 = and i32 %49, 1008
  %51 = and i32 %50, 64
  %52 = icmp ne i32 %51, 0
  br i1 %52, label %71, label %53

53:                                               ; preds = %44
  %54 = load ptr, ptr %5, align 8
  store ptr %54, ptr %3, align 8
  %55 = load ptr, ptr %3, align 8
  %56 = load i32, ptr %55, align 4
  %57 = icmp ugt i32 %56, 0
  call void @llvm.assume(i1 %57)
  %58 = load ptr, ptr %3, align 8
  %59 = load i32, ptr %58, align 4
  %60 = add i32 %59, -1
  store i32 %60, ptr %58, align 4
  %61 = icmp eq i32 %60, 0
  br i1 %61, label %62, label %70

62:                                               ; preds = %53
  %63 = load i8, ptr %6, align 1
  %64 = trunc i8 %63 to i1
  br i1 %64, label %65, label %67

65:                                               ; preds = %62
  %66 = load ptr, ptr %5, align 8
  call void @free(ptr noundef %66) #11
  br label %69

67:                                               ; preds = %62
  %68 = load ptr, ptr %5, align 8
  call void @_efree(ptr noundef %68) #11
  br label %69

69:                                               ; preds = %67, %65
  br label %70

70:                                               ; preds = %69, %53
  br label %71

71:                                               ; preds = %70, %44
  br label %72

72:                                               ; preds = %71, %30
  br label %73

73:                                               ; preds = %72, %27
  %74 = load i32, ptr %9, align 4
  %75 = call ptr @xmlAllocParserInputBuffer(i32 noundef %74)
  store ptr %75, ptr %10, align 8
  %76 = load ptr, ptr %10, align 8
  %77 = icmp ne ptr %76, null
  br i1 %77, label %78, label %86

78:                                               ; preds = %73
  %79 = load ptr, ptr %11, align 8
  %80 = load ptr, ptr %10, align 8
  %81 = getelementptr inbounds %struct._xmlParserInputBuffer, ptr %80, i32 0, i32 0
  store ptr %79, ptr %81, align 8
  %82 = load ptr, ptr %10, align 8
  %83 = getelementptr inbounds %struct._xmlParserInputBuffer, ptr %82, i32 0, i32 1
  store ptr @php_libxml_streams_IO_read, ptr %83, align 8
  %84 = load ptr, ptr %10, align 8
  %85 = getelementptr inbounds %struct._xmlParserInputBuffer, ptr %84, i32 0, i32 2
  store ptr @php_libxml_streams_IO_close, ptr %85, align 8
  br label %89

86:                                               ; preds = %73
  %87 = load ptr, ptr %11, align 8
  %88 = call i32 @php_libxml_streams_IO_close(ptr noundef %87)
  br label %89

89:                                               ; preds = %86, %78
  %90 = load ptr, ptr %10, align 8
  store ptr %90, ptr %7, align 8
  br label %91

91:                                               ; preds = %89, %26, %20, %16
  %92 = load ptr, ptr %7, align 8
  ret ptr %92
}