; Function Attrs: nounwind uwtable
define internal ptr @php_libxml_input_buffer_create_filename(ptr noundef %0, i32 noundef %1) #0 {
  %3 = load i8, ptr getelementptr inbounds (%struct._zend_libxml_globals, ptr @libxml_globals, i64 0, i32 4), align 8
  %4 = and i8 %3, 1
  %.not = icmp ne i8 %4, 0
  %5 = icmp eq ptr %0, null
  %or.cond = or i1 %5, %.not
  br i1 %or.cond, label %32, label %6

6:                                                ; preds = %2
  %7 = tail call fastcc ptr @php_libxml_streams_IO_open_wrapper(ptr noundef nonnull %0, ptr noundef nonnull @.str.72, i32 noundef 1)
  %8 = icmp eq ptr %7, null
  br i1 %8, label %32, label %9

9:                                                ; preds = %6
  %10 = icmp eq i32 %1, 0
  br i1 %10, label %11, label %25

11:                                               ; preds = %9
  %12 = tail call ptr @php_libxml_sniff_charset_from_stream(ptr noundef nonnull %7) #17
  %.not32 = icmp eq ptr %12, null
  br i1 %.not32, label %25, label %13

13:                                               ; preds = %11
  %14 = getelementptr inbounds i8, ptr %12, i64 24
  %15 = tail call i32 @xmlParseCharEncoding(ptr noundef nonnull %14) #17
  %spec.store.select = tail call i32 @llvm.smax.i32(i32 %15, i32 0)
  %16 = getelementptr inbounds i8, ptr %12, i64 4
  %17 = load i32, ptr %16, align 4
  %18 = and i32 %17, 64
  %.not33 = icmp eq i32 %18, 0
  br i1 %.not33, label %19, label %25

19:                                               ; preds = %13
  %20 = load i32, ptr %12, align 4
  %21 = icmp ne i32 %20, 0
  tail call void @llvm.assume(i1 %21)
  %22 = add i32 %20, -1
  store i32 %22, ptr %12, align 4
  %23 = icmp eq i32 %22, 0
  br i1 %23, label %24, label %25

24:                                               ; preds = %19
  tail call void @_efree(ptr noundef nonnull %12) #17
  br label %25

25:                                               ; preds = %11, %19, %24, %13, %9
  %.026 = phi i32 [ %spec.store.select, %13 ], [ %spec.store.select, %24 ], [ %spec.store.select, %19 ], [ 0, %11 ], [ %1, %9 ]
  %26 = tail call ptr @xmlAllocParserInputBuffer(i32 noundef %.026) #17
  %.not34 = icmp eq ptr %26, null
  br i1 %.not34, label %30, label %27

27:                                               ; preds = %25
  store ptr %7, ptr %26, align 8
  %28 = getelementptr inbounds i8, ptr %26, i64 8
  store ptr @php_libxml_streams_IO_read, ptr %28, align 8
  %29 = getelementptr inbounds i8, ptr %26, i64 16
  store ptr @php_libxml_streams_IO_close, ptr %29, align 8
  br label %32

30:                                               ; preds = %25
  %31 = tail call i32 @_php_stream_free(ptr noundef nonnull %7, i32 noundef 3) #17
  br label %32

32:                                               ; preds = %27, %30, %6, %2
  %.0 = phi ptr [ null, %2 ], [ null, %6 ], [ null, %30 ], [ %26, %27 ]
  ret ptr %.0
}